target datalayout = "e-m:e-p270:32:32-p271:32:32-p272:64:64-i64:64-i128:128-f80:128-n8:16:32:64-S128"
target triple = "x86_64-pc-linux-gnu"

@.str.30 = private unnamed_addr constant [5 x i8] c"name\00", align 1
@.str.76 = private unnamed_addr constant [5 x i8] c"type\00", align 1
@_ZN33java_lang_reflect_RecordComponent13_clazz_offsetE = hidden global i32 0, align 4
@_ZN33java_lang_reflect_RecordComponent12_name_offsetE = hidden global i32 0, align 4
@_ZN33java_lang_reflect_RecordComponent12_type_offsetE = hidden global i32 0, align 4
@_ZN33java_lang_reflect_RecordComponent16_accessor_offsetE = hidden global i32 0, align 4
@_ZN33java_lang_reflect_RecordComponent17_signature_offsetE = hidden global i32 0, align 4
@_ZN33java_lang_reflect_RecordComponent19_annotations_offsetE = hidden global i32 0, align 4
@_ZN33java_lang_reflect_RecordComponent23_typeAnnotations_offsetE = hidden global i32 0, align 4
@.str.159 = private unnamed_addr constant [6 x i8] c"clazz\00", align 1
@.str.160 = private unnamed_addr constant [9 x i8] c"accessor\00", align 1
@.str.161 = private unnamed_addr constant [10 x i8] c"signature\00", align 1
@.str.162 = private unnamed_addr constant [12 x i8] c"annotations\00", align 1
@.str.163 = private unnamed_addr constant [16 x i8] c"typeAnnotations\00", align 1
@_ZN9vmClasses8_klassesE = external global [0 x ptr], align 8
@_ZN6Symbol11_vm_symbolsE = external global [0 x ptr], align 8

; Function Attrs: mustprogress nounwind uwtable
define linkonce_odr hidden noundef ptr @_ZN9vmClasses11check_klassEP13InstanceKlass(ptr noundef %0) #1 comdat align 2 {
  %2 = alloca ptr, align 8
  store ptr %0, ptr %2, align 8
  %3 = load ptr, ptr %2, align 8
  ret ptr %3
}

; Function Attrs: mustprogress nounwind uwtable
define linkonce_odr hidden noundef ptr @_ZN9vmSymbols20byte_array_signatureEv() #1 comdat align 2 {
  %1 = load ptr, ptr getelementptr inbounds ([0 x ptr], ptr @_ZN6Symbol11_vm_symbolsE, i64 0, i64 880), align 8
  ret ptr %1
}

; Function Attrs: mustprogress nounwind uwtable
define linkonce_odr hidden noundef ptr @_ZN9vmSymbols24reflect_method_signatureEv() #1 comdat align 2 {
  %1 = load ptr, ptr getelementptr inbounds ([0 x ptr], ptr @_ZN6Symbol11_vm_symbolsE, i64 0, i64 951), align 8
  ret ptr %1
}

; Function Attrs: mustprogress nounwind uwtable
define linkonce_odr hidden noundef ptr @_ZN9vmSymbols16string_signatureEv() #1 comdat align 2 {
  %1 = load ptr, ptr getelementptr inbounds ([0 x ptr], ptr @_ZN6Symbol11_vm_symbolsE, i64 0, i64 935), align 8
  ret ptr %1
}

; Function Attrs: mustprogress nounwind uwtable
define linkonce_odr hidden noundef ptr @_ZN9vmSymbols15class_signatureEv() #1 comdat align 2 {
  %1 = load ptr, ptr getelementptr inbounds ([0 x ptr], ptr @_ZN6Symbol11_vm_symbolsE, i64 0, i64 934), align 8
  ret ptr %1
}

; Function Attrs: mustprogress nounwind uwtable
define linkonce_odr hidden noundef ptr @_ZN9vmClasses21RecordComponent_klassEv() #1 comdat align 2 {
  %1 = load ptr, ptr getelementptr inbounds ([0 x ptr], ptr @_ZN9vmClasses8_klassesE, i64 0, i64 110), align 8
  %2 = call noundef ptr @_ZN9vmClasses11check_klassEP13InstanceKlass(ptr noundef %1)
  ret ptr %2
}

; Function Attrs: mustprogress nounwind uwtable
define hidden void @_ZN33java_lang_reflect_RecordComponent15compute_offsetsEv() #1 align 2 {
  %1 = alloca ptr, align 8
  %2 = call noundef ptr @_ZN9vmClasses21RecordComponent_klassEv()
  store ptr %2, ptr %1, align 8
  %3 = load ptr, ptr %1, align 8
  %4 = call noundef ptr @_ZN9vmSymbols15class_signatureEv()
  call void @_ZN11JavaClasses14compute_offsetERiP13InstanceKlassPKcP6Symbolb(ptr noundef nonnull align 4 dereferenceable(4) @_ZN33java_lang_reflect_RecordComponent13_clazz_offsetE, ptr noundef %3, ptr noundef @.str.159, ptr noundef %4, i1 noundef zeroext false)
  %5 = load ptr, ptr %1, align 8
  %6 = call noundef ptr @_ZN9vmSymbols16string_signatureEv()
  call void @_ZN11JavaClasses14compute_offsetERiP13InstanceKlassPKcP6Symbolb(ptr noundef nonnull align 4 dereferenceable(4) @_ZN33java_lang_reflect_RecordComponent12_name_offsetE, ptr noundef %5, ptr noundef @.str.30, ptr noundef %6, i1 noundef zeroext false)
  %7 = load ptr, ptr %1, align 8
  %8 = call noundef ptr @_ZN9vmSymbols15class_signatureEv()
  call void @_ZN11JavaClasses14compute_offsetERiP13InstanceKlassPKcP6Symbolb(ptr noundef nonnull align 4 dereferenceable(4) @_ZN33java_lang_reflect_RecordComponent12_type_offsetE, ptr noundef %7, ptr noundef @.str.76, ptr noundef %8, i1 noundef zeroext false)
  %9 = load ptr, ptr %1, align 8
  %10 = call noundef ptr @_ZN9vmSymbols24reflect_method_signatureEv()
  call void @_ZN11JavaClasses14compute_offsetERiP13InstanceKlassPKcP6Symbolb(ptr noundef nonnull align 4 dereferenceable(4) @_ZN33java_lang_reflect_RecordComponent16_accessor_offsetE, ptr noundef %9, ptr noundef @.str.160, ptr noundef %10, i1 noundef zeroext false)
  %11 = load ptr, ptr %1, align 8
  %12 = call noundef ptr @_ZN9vmSymbols16string_signatureEv()
  call void @_ZN11JavaClasses14compute_offsetERiP13InstanceKlassPKcP6Symbolb(ptr noundef nonnull align 4 dereferenceable(4) @_ZN33java_lang_reflect_RecordComponent17_signature_offsetE, ptr noundef %11, ptr noundef @.str.161, ptr noundef %12, i1 noundef zeroext false)
  %13 = load ptr, ptr %1, align 8
  %14 = call noundef ptr @_ZN9vmSymbols20byte_array_signatureEv()
  call void @_ZN11JavaClasses14compute_offsetERiP13InstanceKlassPKcP6Symbolb(ptr noundef nonnull align 4 dereferenceable(4) @_ZN33java_lang_reflect_RecordComponent19_annotations_offsetE, ptr noundef %13, ptr noundef @.str.162, ptr noundef %14, i1 noundef zeroext false)
  %15 = load ptr, ptr %1, align 8
  %16 = call noundef ptr @_ZN9vmSymbols20byte_array_signatureEv()
  call void @_ZN11JavaClasses14compute_offsetERiP13InstanceKlassPKcP6Symbolb(ptr noundef nonnull align 4 dereferenceable(4) @_ZN33java_lang_reflect_RecordComponent23_typeAnnotations_offsetE, ptr noundef %15, ptr noundef @.str.163, ptr noundef %16, i1 noundef zeroext false)
  ret void
}