; Function Attrs: mustprogress nounwind uwtable
define hidden void @_ZN33java_lang_reflect_RecordComponent15compute_offsetsEv() local_unnamed_addr #0 align 2 {
  %1 = load ptr, ptr getelementptr inbounds (i8, ptr @_ZN9vmClasses8_klassesE, i64 880), align 8
  %2 = load ptr, ptr getelementptr inbounds (i8, ptr @_ZN6Symbol11_vm_symbolsE, i64 7472), align 8
  tail call void @_ZN11JavaClasses14compute_offsetERiP13InstanceKlassPKcP6Symbolb(ptr noundef nonnull align 4 dereferenceable(4) @_ZN33java_lang_reflect_RecordComponent13_clazz_offsetE, ptr noundef %1, ptr noundef nonnull @.str.159, ptr noundef %2, i1 noundef zeroext false)
  %3 = load ptr, ptr getelementptr inbounds (i8, ptr @_ZN6Symbol11_vm_symbolsE, i64 7480), align 8
  tail call void @_ZN11JavaClasses14compute_offsetERiP13InstanceKlassPKcP6Symbolb(ptr noundef nonnull align 4 dereferenceable(4) @_ZN33java_lang_reflect_RecordComponent12_name_offsetE, ptr noundef %1, ptr noundef nonnull @.str.30, ptr noundef %3, i1 noundef zeroext false)
  %4 = load ptr, ptr getelementptr inbounds (i8, ptr @_ZN6Symbol11_vm_symbolsE, i64 7472), align 8
  tail call void @_ZN11JavaClasses14compute_offsetERiP13InstanceKlassPKcP6Symbolb(ptr noundef nonnull align 4 dereferenceable(4) @_ZN33java_lang_reflect_RecordComponent12_type_offsetE, ptr noundef %1, ptr noundef nonnull @.str.76, ptr noundef %4, i1 noundef zeroext false)
  %5 = load ptr, ptr getelementptr inbounds (i8, ptr @_ZN6Symbol11_vm_symbolsE, i64 7608), align 8
  tail call void @_ZN11JavaClasses14compute_offsetERiP13InstanceKlassPKcP6Symbolb(ptr noundef nonnull align 4 dereferenceable(4) @_ZN33java_lang_reflect_RecordComponent16_accessor_offsetE, ptr noundef %1, ptr noundef nonnull @.str.160, ptr noundef %5, i1 noundef zeroext false)
  %6 = load ptr, ptr getelementptr inbounds (i8, ptr @_ZN6Symbol11_vm_symbolsE, i64 7480), align 8
  tail call void @_ZN11JavaClasses14compute_offsetERiP13InstanceKlassPKcP6Symbolb(ptr noundef nonnull align 4 dereferenceable(4) @_ZN33java_lang_reflect_RecordComponent17_signature_offsetE, ptr noundef %1, ptr noundef nonnull @.str.161, ptr noundef %6, i1 noundef zeroext false)
  %7 = load ptr, ptr getelementptr inbounds (i8, ptr @_ZN6Symbol11_vm_symbolsE, i64 7040), align 8
  tail call void @_ZN11JavaClasses14compute_offsetERiP13InstanceKlassPKcP6Symbolb(ptr noundef nonnull align 4 dereferenceable(4) @_ZN33java_lang_reflect_RecordComponent19_annotations_offsetE, ptr noundef %1, ptr noundef nonnull @.str.162, ptr noundef %7, i1 noundef zeroext false)
  %8 = load ptr, ptr getelementptr inbounds (i8, ptr @_ZN6Symbol11_vm_symbolsE, i64 7040), align 8
  tail call void @_ZN11JavaClasses14compute_offsetERiP13InstanceKlassPKcP6Symbolb(ptr noundef nonnull align 4 dereferenceable(4) @_ZN33java_lang_reflect_RecordComponent23_typeAnnotations_offsetE, ptr noundef %1, ptr noundef nonnull @.str.163, ptr noundef %8, i1 noundef zeroext false)
  ret void
}